target datalayout = "e-m:e-p270:32:32-p271:32:32-p272:64:64-i64:64-i128:128-f80:128-n8:16:32:64-S128"
target triple = "x86_64-pc-linux-gnu"

%struct.ossl_ml_kem_scalar_st = type { [256 x i16] }

; Function Attrs: nounwind uwtable
define internal zeroext i16 @reduce_once(i16 noundef zeroext %0) #0 {
  %2 = alloca i16, align 2
  %3 = alloca i16, align 2
  %4 = alloca i16, align 2
  store i16 %0, ptr %2, align 2, !tbaa !55
  call void @llvm.lifetime.start.p0(i64 2, ptr %3) #8
  %5 = load i16, ptr %2, align 2, !tbaa !55
  %6 = zext i16 %5 to i32
  %7 = sub nsw i32 %6, 3329
  %8 = trunc i32 %7 to i16
  store i16 %8, ptr %3, align 2, !tbaa !55
  call void @llvm.lifetime.start.p0(i64 2, ptr %4) #8
  %9 = load i16, ptr %3, align 2, !tbaa !55
  %10 = zext i16 %9 to i32
  %11 = ashr i32 %10, 15
  %12 = sub i32 0, %11
  %13 = trunc i32 %12 to i16
  store i16 %13, ptr %4, align 2, !tbaa !55
  %14 = load i16, ptr %4, align 2, !tbaa !55
  %15 = zext i16 %14 to i32
  %16 = load i16, ptr %2, align 2, !tbaa !55
  %17 = zext i16 %16 to i32
  %18 = and i32 %15, %17
  %19 = load i16, ptr %4, align 2, !tbaa !55
  %20 = zext i16 %19 to i32
  %21 = xor i32 %20, -1
  %22 = load i16, ptr %3, align 2, !tbaa !55
  %23 = zext i16 %22 to i32
  %24 = and i32 %21, %23
  %25 = or i32 %18, %24
  %26 = trunc i32 %25 to i16
  call void @llvm.lifetime.end.p0(i64 2, ptr %4) #8
  call void @llvm.lifetime.end.p0(i64 2, ptr %3) #8
  ret i16 %26
}

; Function Attrs: nounwind uwtable
define internal zeroext i16 @reduce(i32 noundef %0) #0 {
  %2 = alloca i32, align 4
  %3 = alloca i64, align 8
  %4 = alloca i32, align 4
  %5 = alloca i32, align 4
  store i32 %0, ptr %2, align 4, !tbaa !23
  call void @llvm.lifetime.start.p0(i64 8, ptr %3) #8
  %6 = load i32, ptr %2, align 4, !tbaa !23
  %7 = zext i32 %6 to i64
  %8 = mul i64 %7, 5039
  store i64 %8, ptr %3, align 8, !tbaa !42
  call void @llvm.lifetime.start.p0(i64 4, ptr %4) #8
  %9 = load i64, ptr %3, align 8, !tbaa !42
  %10 = lshr i64 %9, 24
  %11 = trunc i64 %10 to i32
  store i32 %11, ptr %4, align 4, !tbaa !23
  call void @llvm.lifetime.start.p0(i64 4, ptr %5) #8
  %12 = load i32, ptr %2, align 4, !tbaa !23
  %13 = load i32, ptr %4, align 4, !tbaa !23
  %14 = mul i32 %13, 3329
  %15 = sub i32 %12, %14
  store i32 %15, ptr %5, align 4, !tbaa !23
  %16 = load i32, ptr %5, align 4, !tbaa !23
  %17 = trunc i32 %16 to i16
  %18 = call zeroext i16 @reduce_once(i16 noundef zeroext %17)
  call void @llvm.lifetime.end.p0(i64 4, ptr %5) #8
  call void @llvm.lifetime.end.p0(i64 4, ptr %4) #8
  call void @llvm.lifetime.end.p0(i64 8, ptr %3) #8
  ret i16 %18
}

; Function Attrs: inlinehint nounwind uwtable
define internal void @scalar_mult_add(ptr noundef %0, ptr noundef %1, ptr noundef %2) #6 {
  %4 = alloca ptr, align 8
  %5 = alloca ptr, align 8
  %6 = alloca ptr, align 8
  %7 = alloca ptr, align 8
  %8 = alloca ptr, align 8
  %9 = alloca ptr, align 8
  %10 = alloca ptr, align 8
  %11 = alloca ptr, align 8
  %12 = alloca i32, align 4
  %13 = alloca i32, align 4
  %14 = alloca i32, align 4
  %15 = alloca i32, align 4
  %16 = alloca ptr, align 8
  %17 = alloca ptr, align 8
  %18 = alloca i32, align 4
  store ptr %0, ptr %4, align 8, !tbaa !40
  store ptr %1, ptr %5, align 8, !tbaa !40
  store ptr %2, ptr %6, align 8, !tbaa !40
  call void @llvm.lifetime.start.p0(i64 8, ptr %7) #8
  %19 = load ptr, ptr %4, align 8, !tbaa !40
  %20 = getelementptr inbounds nuw %struct.ossl_ml_kem_scalar_st, ptr %19, i32 0, i32 0
  %21 = getelementptr inbounds [256 x i16], ptr %20, i64 0, i64 0
  store ptr %21, ptr %7, align 8, !tbaa !53
  call void @llvm.lifetime.start.p0(i64 8, ptr %8) #8
  %22 = load ptr, ptr %7, align 8, !tbaa !53
  %23 = getelementptr inbounds i16, ptr %22, i64 256
  store ptr %23, ptr %8, align 8, !tbaa !53
  call void @llvm.lifetime.start.p0(i64 8, ptr %9) #8
  %24 = load ptr, ptr %5, align 8, !tbaa !40
  %25 = getelementptr inbounds nuw %struct.ossl_ml_kem_scalar_st, ptr %24, i32 0, i32 0
  %26 = getelementptr inbounds [256 x i16], ptr %25, i64 0, i64 0
  store ptr %26, ptr %9, align 8, !tbaa !53
  call void @llvm.lifetime.start.p0(i64 8, ptr %10) #8
  %27 = load ptr, ptr %6, align 8, !tbaa !40
  %28 = getelementptr inbounds nuw %struct.ossl_ml_kem_scalar_st, ptr %27, i32 0, i32 0
  %29 = getelementptr inbounds [256 x i16], ptr %28, i64 0, i64 0
  store ptr %29, ptr %10, align 8, !tbaa !53
  call void @llvm.lifetime.start.p0(i64 8, ptr %11) #8
  store ptr @kModRoots, ptr %11, align 8, !tbaa !53
  br label %30

30:                                               ; preds = %85, %3
  call void @llvm.lifetime.start.p0(i64 4, ptr %12) #8
  %31 = load ptr, ptr %9, align 8, !tbaa !53
  %32 = getelementptr inbounds nuw i16, ptr %31, i32 1
  store ptr %32, ptr %9, align 8, !tbaa !53
  %33 = load i16, ptr %31, align 2, !tbaa !55
  %34 = zext i16 %33 to i32
  store i32 %34, ptr %12, align 4, !tbaa !23
  call void @llvm.lifetime.start.p0(i64 4, ptr %13) #8
  %35 = load ptr, ptr %10, align 8, !tbaa !53
  %36 = getelementptr inbounds nuw i16, ptr %35, i32 1
  store ptr %36, ptr %10, align 8, !tbaa !53
  %37 = load i16, ptr %35, align 2, !tbaa !55
  %38 = zext i16 %37 to i32
  store i32 %38, ptr %13, align 4, !tbaa !23
  call void @llvm.lifetime.start.p0(i64 4, ptr %14) #8
  %39 = load ptr, ptr %9, align 8, !tbaa !53
  %40 = getelementptr inbounds nuw i16, ptr %39, i32 1
  store ptr %40, ptr %9, align 8, !tbaa !53
  %41 = load i16, ptr %39, align 2, !tbaa !55
  %42 = zext i16 %41 to i32
  store i32 %42, ptr %14, align 4, !tbaa !23
  call void @llvm.lifetime.start.p0(i64 4, ptr %15) #8
  %43 = load ptr, ptr %10, align 8, !tbaa !53
  %44 = getelementptr inbounds nuw i16, ptr %43, i32 1
  store ptr %44, ptr %10, align 8, !tbaa !53
  %45 = load i16, ptr %43, align 2, !tbaa !55
  %46 = zext i16 %45 to i32
  store i32 %46, ptr %15, align 4, !tbaa !23
  call void @llvm.lifetime.start.p0(i64 8, ptr %16) #8
  %47 = load ptr, ptr %7, align 8, !tbaa !53
  %48 = getelementptr inbounds nuw i16, ptr %47, i32 1
  store ptr %48, ptr %7, align 8, !tbaa !53
  store ptr %47, ptr %16, align 8, !tbaa !53
  call void @llvm.lifetime.start.p0(i64 8, ptr %17) #8
  %49 = load ptr, ptr %7, align 8, !tbaa !53
  %50 = getelementptr inbounds nuw i16, ptr %49, i32 1
  store ptr %50, ptr %7, align 8, !tbaa !53
  store ptr %49, ptr %17, align 8, !tbaa !53
  call void @llvm.lifetime.start.p0(i64 4, ptr %18) #8
  %51 = load ptr, ptr %11, align 8, !tbaa !53
  %52 = getelementptr inbounds nuw i16, ptr %51, i32 1
  store ptr %52, ptr %11, align 8, !tbaa !53
  %53 = load i16, ptr %51, align 2, !tbaa !55
  %54 = zext i16 %53 to i32
  store i32 %54, ptr %18, align 4, !tbaa !23
  %55 = load ptr, ptr %16, align 8, !tbaa !53
  %56 = load i16, ptr %55, align 2, !tbaa !55
  %57 = zext i16 %56 to i32
  %58 = load i32, ptr %12, align 4, !tbaa !23
  %59 = load i32, ptr %13, align 4, !tbaa !23
  %60 = mul i32 %58, %59
  %61 = add i32 %57, %60
  %62 = load i32, ptr %14, align 4, !tbaa !23
  %63 = load i32, ptr %15, align 4, !tbaa !23
  %64 = mul i32 %62, %63
  %65 = call zeroext i16 @reduce(i32 noundef %64)
  %66 = zext i16 %65 to i32
  %67 = load i32, ptr %18, align 4, !tbaa !23
  %68 = mul i32 %66, %67
  %69 = add i32 %61, %68
  %70 = call zeroext i16 @reduce(i32 noundef %69)
  %71 = load ptr, ptr %16, align 8, !tbaa !53
  store i16 %70, ptr %71, align 2, !tbaa !55
  %72 = load ptr, ptr %17, align 8, !tbaa !53
  %73 = load i16, ptr %72, align 2, !tbaa !55
  %74 = zext i16 %73 to i32
  %75 = load i32, ptr %12, align 4, !tbaa !23
  %76 = load i32, ptr %15, align 4, !tbaa !23
  %77 = mul i32 %75, %76
  %78 = add i32 %74, %77
  %79 = load i32, ptr %14, align 4, !tbaa !23
  %80 = load i32, ptr %13, align 4, !tbaa !23
  %81 = mul i32 %79, %80
  %82 = add i32 %78, %81
  %83 = call zeroext i16 @reduce(i32 noundef %82)
  %84 = load ptr, ptr %17, align 8, !tbaa !53
  store i16 %83, ptr %84, align 2, !tbaa !55
  call void @llvm.lifetime.end.p0(i64 4, ptr %18) #8
  call void @llvm.lifetime.end.p0(i64 8, ptr %17) #8
  call void @llvm.lifetime.end.p0(i64 8, ptr %16) #8
  call void @llvm.lifetime.end.p0(i64 4, ptr %15) #8
  call void @llvm.lifetime.end.p0(i64 4, ptr %14) #8
  call void @llvm.lifetime.end.p0(i64 4, ptr %13) #8
  call void @llvm.lifetime.end.p0(i64 4, ptr %12) #8
  br label %85

85:                                               ; preds = %30
  %86 = load ptr, ptr %7, align 8, !tbaa !53
  %87 = load ptr, ptr %8, align 8, !tbaa !53
  %88 = icmp ult ptr %86, %87
  br i1 %88, label %30, label %89, !llvm.loop !73

89:                                               ; preds = %85
  call void @llvm.lifetime.end.p0(i64 8, ptr %11) #8
  call void @llvm.lifetime.end.p0(i64 8, ptr %10) #8
  call void @llvm.lifetime.end.p0(i64 8, ptr %9) #8
  call void @llvm.lifetime.end.p0(i64 8, ptr %8) #8
  call void @llvm.lifetime.end.p0(i64 8, ptr %7) #8
  ret void
}

; Function Attrs: nounwind uwtable
define internal void @scalar_mult(ptr noundef %0, ptr noundef %1, ptr noundef %2) #0 {
  %4 = alloca ptr, align 8
  %5 = alloca ptr, align 8
  %6 = alloca ptr, align 8
  %7 = alloca ptr, align 8
  %8 = alloca ptr, align 8
  %9 = alloca ptr, align 8
  %10 = alloca ptr, align 8
  %11 = alloca ptr, align 8
  %12 = alloca i32, align 4
  %13 = alloca i32, align 4
  %14 = alloca i32, align 4
  %15 = alloca i32, align 4
  %16 = alloca i32, align 4
  store ptr %0, ptr %4, align 8, !tbaa !40
  store ptr %1, ptr %5, align 8, !tbaa !40
  store ptr %2, ptr %6, align 8, !tbaa !40
  call void @llvm.lifetime.start.p0(i64 8, ptr %7) #8
  %17 = load ptr, ptr %4, align 8, !tbaa !40
  %18 = getelementptr inbounds nuw %struct.ossl_ml_kem_scalar_st, ptr %17, i32 0, i32 0
  %19 = getelementptr inbounds [256 x i16], ptr %18, i64 0, i64 0
  store ptr %19, ptr %7, align 8, !tbaa !53
  call void @llvm.lifetime.start.p0(i64 8, ptr %8) #8
  %20 = load ptr, ptr %7, align 8, !tbaa !53
  %21 = getelementptr inbounds i16, ptr %20, i64 256
  store ptr %21, ptr %8, align 8, !tbaa !53
  call void @llvm.lifetime.start.p0(i64 8, ptr %9) #8
  %22 = load ptr, ptr %5, align 8, !tbaa !40
  %23 = getelementptr inbounds nuw %struct.ossl_ml_kem_scalar_st, ptr %22, i32 0, i32 0
  %24 = getelementptr inbounds [256 x i16], ptr %23, i64 0, i64 0
  store ptr %24, ptr %9, align 8, !tbaa !53
  call void @llvm.lifetime.start.p0(i64 8, ptr %10) #8
  %25 = load ptr, ptr %6, align 8, !tbaa !40
  %26 = getelementptr inbounds nuw %struct.ossl_ml_kem_scalar_st, ptr %25, i32 0, i32 0
  %27 = getelementptr inbounds [256 x i16], ptr %26, i64 0, i64 0
  store ptr %27, ptr %10, align 8, !tbaa !53
  call void @llvm.lifetime.start.p0(i64 8, ptr %11) #8
  store ptr @kModRoots, ptr %11, align 8, !tbaa !53
  br label %28

28:                                               ; preds = %73, %3
  call void @llvm.lifetime.start.p0(i64 4, ptr %12) #8
  %29 = load ptr, ptr %9, align 8, !tbaa !53
  %30 = getelementptr inbounds nuw i16, ptr %29, i32 1
  store ptr %30, ptr %9, align 8, !tbaa !53
  %31 = load i16, ptr %29, align 2, !tbaa !55
  %32 = zext i16 %31 to i32
  store i32 %32, ptr %12, align 4, !tbaa !23
  call void @llvm.lifetime.start.p0(i64 4, ptr %13) #8
  %33 = load ptr, ptr %10, align 8, !tbaa !53
  %34 = getelementptr inbounds nuw i16, ptr %33, i32 1
  store ptr %34, ptr %10, align 8, !tbaa !53
  %35 = load i16, ptr %33, align 2, !tbaa !55
  %36 = zext i16 %35 to i32
  store i32 %36, ptr %13, align 4, !tbaa !23
  call void @llvm.lifetime.start.p0(i64 4, ptr %14) #8
  %37 = load ptr, ptr %9, align 8, !tbaa !53
  %38 = getelementptr inbounds nuw i16, ptr %37, i32 1
  store ptr %38, ptr %9, align 8, !tbaa !53
  %39 = load i16, ptr %37, align 2, !tbaa !55
  %40 = zext i16 %39 to i32
  store i32 %40, ptr %14, align 4, !tbaa !23
  call void @llvm.lifetime.start.p0(i64 4, ptr %15) #8
  %41 = load ptr, ptr %10, align 8, !tbaa !53
  %42 = getelementptr inbounds nuw i16, ptr %41, i32 1
  store ptr %42, ptr %10, align 8, !tbaa !53
  %43 = load i16, ptr %41, align 2, !tbaa !55
  %44 = zext i16 %43 to i32
  store i32 %44, ptr %15, align 4, !tbaa !23
  call void @llvm.lifetime.start.p0(i64 4, ptr %16) #8
  %45 = load ptr, ptr %11, align 8, !tbaa !53
  %46 = getelementptr inbounds nuw i16, ptr %45, i32 1
  store ptr %46, ptr %11, align 8, !tbaa !53
  %47 = load i16, ptr %45, align 2, !tbaa !55
  %48 = zext i16 %47 to i32
  store i32 %48, ptr %16, align 4, !tbaa !23
  %49 = load i32, ptr %12, align 4, !tbaa !23
  %50 = load i32, ptr %13, align 4, !tbaa !23
  %51 = mul i32 %49, %50
  %52 = load i32, ptr %14, align 4, !tbaa !23
  %53 = load i32, ptr %15, align 4, !tbaa !23
  %54 = mul i32 %52, %53
  %55 = call zeroext i16 @reduce(i32 noundef %54)
  %56 = zext i16 %55 to i32
  %57 = load i32, ptr %16, align 4, !tbaa !23
  %58 = mul i32 %56, %57
  %59 = add i32 %51, %58
  %60 = call zeroext i16 @reduce(i32 noundef %59)
  %61 = load ptr, ptr %7, align 8, !tbaa !53
  %62 = getelementptr inbounds nuw i16, ptr %61, i32 1
  store ptr %62, ptr %7, align 8, !tbaa !53
  store i16 %60, ptr %61, align 2, !tbaa !55
  %63 = load i32, ptr %12, align 4, !tbaa !23
  %64 = load i32, ptr %15, align 4, !tbaa !23
  %65 = mul i32 %63, %64
  %66 = load i32, ptr %14, align 4, !tbaa !23
  %67 = load i32, ptr %13, align 4, !tbaa !23
  %68 = mul i32 %66, %67
  %69 = add i32 %65, %68
  %70 = call zeroext i16 @reduce(i32 noundef %69)
  %71 = load ptr, ptr %7, align 8, !tbaa !53
  %72 = getelementptr inbounds nuw i16, ptr %71, i32 1
  store ptr %72, ptr %7, align 8, !tbaa !53
  store i16 %70, ptr %71, align 2, !tbaa !55
  call void @llvm.lifetime.end.p0(i64 4, ptr %16) #8
  call void @llvm.lifetime.end.p0(i64 4, ptr %15) #8
  call void @llvm.lifetime.end.p0(i64 4, ptr %14) #8
  call void @llvm.lifetime.end.p0(i64 4, ptr %13) #8
  call void @llvm.lifetime.end.p0(i64 4, ptr %12) #8
  br label %73

73:                                               ; preds = %28
  %74 = load ptr, ptr %7, align 8, !tbaa !53
  %75 = load ptr, ptr %8, align 8, !tbaa !53
  %76 = icmp ult ptr %74, %75
  br i1 %76, label %28, label %77, !llvm.loop !89

77:                                               ; preds = %73
  call void @llvm.lifetime.end.p0(i64 8, ptr %11) #8
  call void @llvm.lifetime.end.p0(i64 8, ptr %10) #8
  call void @llvm.lifetime.end.p0(i64 8, ptr %9) #8
  call void @llvm.lifetime.end.p0(i64 8, ptr %8) #8
  call void @llvm.lifetime.end.p0(i64 8, ptr %7) #8
  ret void
}

; Function Attrs: nounwind uwtable
define internal void @inner_product(ptr noundef %0, ptr noundef %1, ptr noundef %2, i32 noundef %3) #0 {
  %5 = alloca ptr, align 8
  %6 = alloca ptr, align 8
  %7 = alloca ptr, align 8
  %8 = alloca i32, align 4
  store ptr %0, ptr %5, align 8, !tbaa !40
  store ptr %1, ptr %6, align 8, !tbaa !40
  store ptr %2, ptr %7, align 8, !tbaa !40
  store i32 %3, ptr %8, align 4, !tbaa !23
  %9 = load ptr, ptr %5, align 8, !tbaa !40
  %10 = load ptr, ptr %6, align 8, !tbaa !40
  %11 = load ptr, ptr %7, align 8, !tbaa !40
  call void @scalar_mult(ptr noundef %9, ptr noundef %10, ptr noundef %11)
  br label %12

12:                                               ; preds = %16, %4
  %13 = load i32, ptr %8, align 4, !tbaa !23
  %14 = add nsw i32 %13, -1
  store i32 %14, ptr %8, align 4, !tbaa !23
  %15 = icmp sgt i32 %14, 0
  br i1 %15, label %16, label %22

16:                                               ; preds = %12
  %17 = load ptr, ptr %5, align 8, !tbaa !40
  %18 = load ptr, ptr %6, align 8, !tbaa !40
  %19 = getelementptr inbounds nuw %struct.ossl_ml_kem_scalar_st, ptr %18, i32 1
  store ptr %19, ptr %6, align 8, !tbaa !40
  %20 = load ptr, ptr %7, align 8, !tbaa !40
  %21 = getelementptr inbounds nuw %struct.ossl_ml_kem_scalar_st, ptr %20, i32 1
  store ptr %21, ptr %7, align 8, !tbaa !40
  call void @scalar_mult_add(ptr noundef %17, ptr noundef %19, ptr noundef %21)
  br label %12, !llvm.loop !77

22:                                               ; preds = %12
  ret void
}