; Function Attrs: nofree norecurse nosync nounwind memory(argmem: readwrite) uwtable
define internal fastcc void @inner_product(ptr noundef nonnull captures(none) %0, ptr noundef readonly captures(none) %1, ptr noundef nonnull readonly captures(none) %2, i32 noundef %3) unnamed_addr #10 {
  br label %5

5:                                                ; preds = %5, %4
  %.023.i = phi ptr [ @kModRoots, %4 ], [ %18, %5 ]
  %.022.i = phi ptr [ %2, %4 ], [ %15, %5 ]
  %.021.i = phi ptr [ %1, %4 ], [ %12, %5 ]
  %.0.idx.i = phi i64 [ 0, %4 ], [ %.0.add.i, %5 ]
  %.0.ptr.i = getelementptr inbounds nuw i8, ptr %0, i64 %.0.idx.i
  %6 = getelementptr inbounds nuw i8, ptr %.021.i, i64 2
  %7 = load i16, ptr %.021.i, align 2, !tbaa !36
  %8 = zext i16 %7 to i32
  %9 = getelementptr inbounds nuw i8, ptr %.022.i, i64 2
  %10 = load i16, ptr %.022.i, align 2, !tbaa !36
  %11 = zext i16 %10 to i32
  %12 = getelementptr inbounds nuw i8, ptr %.021.i, i64 4
  %13 = load i16, ptr %6, align 2, !tbaa !36
  %14 = zext i16 %13 to i32
  %15 = getelementptr inbounds nuw i8, ptr %.022.i, i64 4
  %16 = load i16, ptr %9, align 2, !tbaa !36
  %17 = zext i16 %16 to i32
  %18 = getelementptr inbounds nuw i8, ptr %.023.i, i64 2
  %19 = load i16, ptr %.023.i, align 2, !tbaa !36
  %20 = zext i16 %19 to i32
  %21 = mul nuw i32 %11, %8
  %22 = mul nuw i32 %17, %14
  %23 = zext i32 %22 to i64
  %24 = mul nuw nsw i64 %23, 5039
  %25 = lshr i64 %24, 24
  %26 = trunc nuw nsw i64 %25 to i32
  %.neg.i.i = mul i32 %26, 62207
  %27 = add i32 %.neg.i.i, %22
  %28 = trunc i32 %27 to i16
  %29 = add i16 %28, -3329
  %isneg.i.i.i = icmp slt i16 %29, 0
  %30 = select i1 %isneg.i.i.i, i16 %28, i16 0
  %31 = tail call i16 @llvm.smax.i16(i16 %29, i16 0)
  %32 = or i16 %30, %31
  %33 = zext i16 %32 to i32
  %34 = mul nuw i32 %33, %20
  %35 = add i32 %34, %21
  %36 = zext i32 %35 to i64
  %37 = mul nuw nsw i64 %36, 5039
  %38 = lshr i64 %37, 24
  %39 = trunc nuw nsw i64 %38 to i32
  %.neg.i24.i = mul i32 %39, 62207
  %40 = add i32 %.neg.i24.i, %35
  %41 = trunc i32 %40 to i16
  %42 = add i16 %41, -3329
  %isneg.i.i25.i = icmp slt i16 %42, 0
  %43 = select i1 %isneg.i.i25.i, i16 %41, i16 0
  %44 = tail call i16 @llvm.smax.i16(i16 %42, i16 0)
  %45 = or i16 %43, %44
  %46 = getelementptr inbounds nuw i8, ptr %.0.ptr.i, i64 2
  store i16 %45, ptr %.0.ptr.i, align 2, !tbaa !36
  %47 = mul nuw i32 %17, %8
  %48 = mul nuw i32 %14, %11
  %49 = add i32 %47, %48
  %50 = zext i32 %49 to i64
  %51 = mul nuw nsw i64 %50, 5039
  %52 = lshr i64 %51, 24
  %53 = trunc nuw nsw i64 %52 to i32
  %.neg.i26.i = mul i32 %53, 62207
  %54 = add i32 %.neg.i26.i, %49
  %55 = trunc i32 %54 to i16
  %56 = add i16 %55, -3329
  %isneg.i.i27.i = icmp slt i16 %56, 0
  %57 = select i1 %isneg.i.i27.i, i16 %55, i16 0
  %58 = tail call i16 @llvm.smax.i16(i16 %56, i16 0)
  %59 = or i16 %57, %58
  %.0.add.i = add nuw nsw i64 %.0.idx.i, 4
  store i16 %59, ptr %46, align 2, !tbaa !36
  %60 = icmp samesign ult i64 %.0.idx.i, 508
  br i1 %60, label %5, label %scalar_mult.exit.preheader, !llvm.loop !79

scalar_mult.exit.preheader:                       ; preds = %5
  %61 = icmp sgt i32 %3, 1
  br i1 %61, label %.lr.ph, label %scalar_mult.exit._crit_edge

.lr.ph:                                           ; preds = %scalar_mult.exit.preheader, %scalar_mult_add.exit
  %.016 = phi i32 [ %126, %scalar_mult_add.exit ], [ %3, %scalar_mult.exit.preheader ]
  %.0615 = phi ptr [ %63, %scalar_mult_add.exit ], [ %2, %scalar_mult.exit.preheader ]
  %.0714 = phi ptr [ %62, %scalar_mult_add.exit ], [ %1, %scalar_mult.exit.preheader ]
  %62 = getelementptr inbounds nuw i8, ptr %.0714, i64 512
  %63 = getelementptr inbounds nuw i8, ptr %.0615, i64 512
  br label %64

64:                                               ; preds = %64, %.lr.ph
  %.027.i = phi ptr [ @kModRoots, %.lr.ph ], [ %78, %64 ]
  %.026.i = phi ptr [ %63, %.lr.ph ], [ %74, %64 ]
  %.025.i = phi ptr [ %62, %.lr.ph ], [ %71, %64 ]
  %.0.idx.i9 = phi i64 [ 0, %.lr.ph ], [ %.0.add.i11, %64 ]
  %.0.ptr.i10 = getelementptr inbounds nuw i8, ptr %0, i64 %.0.idx.i9
  %65 = getelementptr inbounds nuw i8, ptr %.025.i, i64 2
  %66 = load i16, ptr %.025.i, align 2, !tbaa !36
  %67 = zext i16 %66 to i32
  %68 = getelementptr inbounds nuw i8, ptr %.026.i, i64 2
  %69 = load i16, ptr %.026.i, align 2, !tbaa !36
  %70 = zext i16 %69 to i32
  %71 = getelementptr inbounds nuw i8, ptr %.025.i, i64 4
  %72 = load i16, ptr %65, align 2, !tbaa !36
  %73 = zext i16 %72 to i32
  %74 = getelementptr inbounds nuw i8, ptr %.026.i, i64 4
  %75 = load i16, ptr %68, align 2, !tbaa !36
  %76 = zext i16 %75 to i32
  %77 = getelementptr inbounds nuw i8, ptr %.0.ptr.i10, i64 2
  %.0.add.i11 = add nuw nsw i64 %.0.idx.i9, 4
  %78 = getelementptr inbounds nuw i8, ptr %.027.i, i64 2
  %79 = load i16, ptr %.027.i, align 2, !tbaa !36
  %80 = zext i16 %79 to i32
  %81 = load i16, ptr %.0.ptr.i10, align 2, !tbaa !36
  %82 = zext i16 %81 to i32
  %83 = mul nuw i32 %70, %67
  %84 = add nuw i32 %83, %82
  %85 = mul nuw i32 %76, %73
  %86 = zext i32 %85 to i64
  %87 = mul nuw nsw i64 %86, 5039
  %88 = lshr i64 %87, 24
  %89 = trunc nuw nsw i64 %88 to i32
  %.neg.i.i12 = mul i32 %89, 62207
  %90 = add i32 %.neg.i.i12, %85
  %91 = trunc i32 %90 to i16
  %92 = add i16 %91, -3329
  %isneg.i.i.i13 = icmp slt i16 %92, 0
  %93 = select i1 %isneg.i.i.i13, i16 %91, i16 0
  %94 = tail call i16 @llvm.smax.i16(i16 %92, i16 0)
  %95 = or i16 %93, %94
  %96 = zext i16 %95 to i32
  %97 = mul nuw i32 %96, %80
  %98 = add i32 %84, %97
  %99 = zext i32 %98 to i64
  %100 = mul nuw nsw i64 %99, 5039
  %101 = lshr i64 %100, 24
  %102 = trunc nuw nsw i64 %101 to i32
  %.neg.i28.i = mul i32 %102, 62207
  %103 = add i32 %.neg.i28.i, %98
  %104 = trunc i32 %103 to i16
  %105 = add i16 %104, -3329
  %isneg.i.i29.i = icmp slt i16 %105, 0
  %106 = select i1 %isneg.i.i29.i, i16 %104, i16 0
  %107 = tail call i16 @llvm.smax.i16(i16 %105, i16 0)
  %108 = or i16 %106, %107
  store i16 %108, ptr %.0.ptr.i10, align 2, !tbaa !36
  %109 = load i16, ptr %77, align 2, !tbaa !36
  %110 = zext i16 %109 to i32
  %111 = mul nuw i32 %76, %67
  %112 = mul nuw i32 %73, %70
  %113 = add i32 %111, %112
  %114 = add i32 %113, %110
  %115 = zext i32 %114 to i64
  %116 = mul nuw nsw i64 %115, 5039
  %117 = lshr i64 %116, 24
  %118 = trunc nuw nsw i64 %117 to i32
  %.neg.i30.i = mul i32 %118, 62207
  %119 = add i32 %.neg.i30.i, %114
  %120 = trunc i32 %119 to i16
  %121 = add i16 %120, -3329
  %isneg.i.i31.i = icmp slt i16 %121, 0
  %122 = select i1 %isneg.i.i31.i, i16 %120, i16 0
  %123 = tail call i16 @llvm.smax.i16(i16 %121, i16 0)
  %124 = or i16 %122, %123
  store i16 %124, ptr %77, align 2, !tbaa !36
  %125 = icmp samesign ult i64 %.0.idx.i9, 508
  br i1 %125, label %64, label %scalar_mult_add.exit, !llvm.loop !51

scalar_mult_add.exit:                             ; preds = %64
  %126 = add nsw i32 %.016, -1
  %127 = icmp sgt i32 %.016, 2
  br i1 %127, label %.lr.ph, label %scalar_mult.exit._crit_edge, !llvm.loop !87

scalar_mult.exit._crit_edge:                      ; preds = %scalar_mult_add.exit, %scalar_mult.exit.preheader
  ret void
}